target datalayout = "e-m:e-p270:32:32-p271:32:32-p272:64:64-i64:64-i128:128-f80:128-n8:16:32:64-S128"
target triple = "x86_64-pc-linux-gnu"

@hf_mpeg_descr_bouquet_name_encoding = internal global i32 0, align 4
@hf_mpeg_descr_bouquet_name = internal global i32 0, align 4

; Function Attrs: null_pointer_is_valid sspstrong uwtable
define internal void @proto_mpeg_descriptor_dissect_bouquet_name(ptr noundef %0, i32 noundef %1, i32 noundef %2, ptr noundef %3) #1 {
  %5 = alloca ptr, align 8
  %6 = alloca i32, align 4
  %7 = alloca i32, align 4
  %8 = alloca ptr, align 8
  %9 = alloca i32, align 4
  %10 = alloca i32, align 4
  store ptr %0, ptr %5, align 8
  store i32 %1, ptr %6, align 4
  store i32 %2, ptr %7, align 4
  store ptr %3, ptr %8, align 8
  call void @llvm.lifetime.start.p0(i64 4, ptr %9) #4
  call void @llvm.lifetime.start.p0(i64 4, ptr %10) #4
  %11 = load ptr, ptr %5, align 8
  %12 = load i32, ptr %6, align 4
  %13 = load i32, ptr %7, align 4
  %14 = call i32 @dvb_analyze_string_charset(ptr noundef %11, i32 noundef %12, i32 noundef %13, ptr noundef %9)
  store i32 %14, ptr %10, align 4
  %15 = load ptr, ptr %8, align 8
  %16 = load i32, ptr @hf_mpeg_descr_bouquet_name_encoding, align 4
  %17 = load ptr, ptr %5, align 8
  %18 = load i32, ptr %6, align 4
  %19 = load i32, ptr %10, align 4
  %20 = load i32, ptr %9, align 4
  call void @dvb_add_chartbl(ptr noundef %15, i32 noundef %16, ptr noundef %17, i32 noundef %18, i32 noundef %19, i32 noundef %20)
  %21 = load ptr, ptr %8, align 8
  %22 = load i32, ptr @hf_mpeg_descr_bouquet_name, align 4
  %23 = load ptr, ptr %5, align 8
  %24 = load i32, ptr %6, align 4
  %25 = load i32, ptr %10, align 4
  %26 = add i32 %24, %25
  %27 = load i32, ptr %7, align 4
  %28 = load i32, ptr %10, align 4
  %29 = sub i32 %27, %28
  %30 = load i32, ptr %9, align 4
  %31 = call i32 @dvb_enc_to_item_enc(i32 noundef %30)
  %32 = call ptr @proto_tree_add_item(ptr noundef %21, i32 noundef %22, ptr noundef %23, i32 noundef %26, i32 noundef %29, i32 noundef %31)
  call void @llvm.lifetime.end.p0(i64 4, ptr %10) #4
  call void @llvm.lifetime.end.p0(i64 4, ptr %9) #4
  ret void
}